target datalayout = "e-m:e-p270:32:32-p271:32:32-p272:64:64-i64:64-i128:128-f80:128-n8:16:32:64-S128"
target triple = "x86_64-pc-linux-gnu"

%struct._php_json_scanner = type { ptr, ptr, ptr, ptr, ptr, ptr, ptr, %struct._zval_struct, i32, i32, i32, i32, i32, i32 }
%struct._zval_struct = type { %union._zend_value, %union.anon, %union.anon.2 }
%union._zend_value = type { i64 }
%union.anon = type { i32 }
%union.anon.2 = type { i32 }

; Function Attrs: nounwind uwtable
define internal i32 @php_json_hex_to_int(i8 noundef signext %0) #0 {
  %2 = alloca i32, align 4
  %3 = alloca i8, align 1
  store i8 %0, ptr %3, align 1
  %4 = load i8, ptr %3, align 1
  %5 = sext i8 %4 to i32
  %6 = icmp sge i32 %5, 48
  br i1 %6, label %7, label %15

7:                                                ; preds = %1
  %8 = load i8, ptr %3, align 1
  %9 = sext i8 %8 to i32
  %10 = icmp sle i32 %9, 57
  br i1 %10, label %11, label %15

11:                                               ; preds = %7
  %12 = load i8, ptr %3, align 1
  %13 = sext i8 %12 to i32
  %14 = sub nsw i32 %13, 48
  store i32 %14, ptr %2, align 4
  br label %40

15:                                               ; preds = %7, %1
  %16 = load i8, ptr %3, align 1
  %17 = sext i8 %16 to i32
  %18 = icmp sge i32 %17, 65
  br i1 %18, label %19, label %27

19:                                               ; preds = %15
  %20 = load i8, ptr %3, align 1
  %21 = sext i8 %20 to i32
  %22 = icmp sle i32 %21, 70
  br i1 %22, label %23, label %27

23:                                               ; preds = %19
  %24 = load i8, ptr %3, align 1
  %25 = sext i8 %24 to i32
  %26 = sub nsw i32 %25, 55
  store i32 %26, ptr %2, align 4
  br label %40

27:                                               ; preds = %19, %15
  %28 = load i8, ptr %3, align 1
  %29 = sext i8 %28 to i32
  %30 = icmp sge i32 %29, 97
  br i1 %30, label %31, label %39

31:                                               ; preds = %27
  %32 = load i8, ptr %3, align 1
  %33 = sext i8 %32 to i32
  %34 = icmp sle i32 %33, 102
  br i1 %34, label %35, label %39

35:                                               ; preds = %31
  %36 = load i8, ptr %3, align 1
  %37 = sext i8 %36 to i32
  %38 = sub nsw i32 %37, 87
  store i32 %38, ptr %2, align 4
  br label %40

39:                                               ; preds = %31, %27
  store i32 -1, ptr %2, align 4
  br label %40

40:                                               ; preds = %39, %35, %23, %11
  %41 = load i32, ptr %2, align 4
  ret i32 %41
}

; Function Attrs: nounwind uwtable
define internal i32 @php_json_ucs2_to_int_ex(ptr noundef %0, i32 noundef %1, i32 noundef %2) #0 {
  %4 = alloca ptr, align 8
  %5 = alloca i32, align 4
  %6 = alloca i32, align 4
  %7 = alloca i32, align 4
  %8 = alloca i32, align 4
  %9 = alloca ptr, align 8
  store ptr %0, ptr %4, align 8
  store i32 %1, ptr %5, align 4
  store i32 %2, ptr %6, align 4
  store i32 0, ptr %8, align 4
  %10 = load ptr, ptr %4, align 8
  %11 = getelementptr inbounds %struct._php_json_scanner, ptr %10, i32 0, i32 0
  %12 = load ptr, ptr %11, align 8
  %13 = load i32, ptr %6, align 4
  %14 = sext i32 %13 to i64
  %15 = sub i64 0, %14
  %16 = getelementptr inbounds i8, ptr %12, i64 %15
  store ptr %16, ptr %9, align 8
  store i32 0, ptr %7, align 4
  br label %17

17:                                               ; preds = %31, %3
  %18 = load i32, ptr %7, align 4
  %19 = load i32, ptr %5, align 4
  %20 = icmp slt i32 %18, %19
  br i1 %20, label %21, label %34

21:                                               ; preds = %17
  %22 = load ptr, ptr %9, align 8
  %23 = getelementptr inbounds i8, ptr %22, i32 -1
  store ptr %23, ptr %9, align 8
  %24 = load i8, ptr %22, align 1
  %25 = call i32 @php_json_hex_to_int(i8 noundef signext %24)
  %26 = load i32, ptr %7, align 4
  %27 = mul nsw i32 %26, 4
  %28 = shl i32 %25, %27
  %29 = load i32, ptr %8, align 4
  %30 = or i32 %29, %28
  store i32 %30, ptr %8, align 4
  br label %31

31:                                               ; preds = %21
  %32 = load i32, ptr %7, align 4
  %33 = add nsw i32 %32, 1
  store i32 %33, ptr %7, align 4
  br label %17

34:                                               ; preds = %17
  %35 = load i32, ptr %8, align 4
  ret i32 %35
}