; Function Attrs: nofree norecurse nosync nounwind memory(read, inaccessiblemem: none) uwtable
define internal fastcc i32 @php_json_ucs2_to_int_ex(ptr nocapture readonly %.0.val, i32 noundef %0, i32 noundef %1) unnamed_addr #6 {
  %3 = icmp sgt i32 %0, 0
  br i1 %3, label %.lr.ph.preheader, label %._crit_edge

.lr.ph.preheader:                                 ; preds = %2
  %4 = zext nneg i32 %1 to i64
  %5 = sub nsw i64 0, %4
  %6 = getelementptr inbounds i8, ptr %.0.val, i64 %5
  br label %.lr.ph

.lr.ph:                                           ; preds = %.lr.ph.preheader, %php_json_hex_to_int.exit
  %.03 = phi ptr [ %7, %php_json_hex_to_int.exit ], [ %6, %.lr.ph.preheader ]
  %.082 = phi i32 [ %22, %php_json_hex_to_int.exit ], [ 0, %.lr.ph.preheader ]
  %.091 = phi i32 [ %23, %php_json_hex_to_int.exit ], [ 0, %.lr.ph.preheader ]
  %7 = getelementptr inbounds i8, ptr %.03, i64 -1
  %8 = load i8, ptr %.03, align 1
  %9 = sext i8 %8 to i32
  %10 = add i8 %8, -48
  %or.cond.i = icmp ult i8 %10, 10
  br i1 %or.cond.i, label %11, label %13

11:                                               ; preds = %.lr.ph
  %12 = add nsw i32 %9, -48
  br label %php_json_hex_to_int.exit

13:                                               ; preds = %.lr.ph
  %14 = add i8 %8, -65
  %or.cond5.i = icmp ult i8 %14, 6
  br i1 %or.cond5.i, label %15, label %17

15:                                               ; preds = %13
  %16 = add nsw i32 %9, -55
  br label %php_json_hex_to_int.exit

17:                                               ; preds = %13
  %18 = add i8 %8, -97
  %or.cond8.i = icmp ult i8 %18, 6
  %19 = add nsw i32 %9, -87
  %spec.select.i = select i1 %or.cond8.i, i32 %19, i32 -1
  br label %php_json_hex_to_int.exit

php_json_hex_to_int.exit:                         ; preds = %11, %15, %17
  %.0.i = phi i32 [ %12, %11 ], [ %16, %15 ], [ %spec.select.i, %17 ]
  %20 = shl nsw i32 %.091, 2
  %21 = shl i32 %.0.i, %20
  %22 = or i32 %21, %.082
  %23 = add nuw nsw i32 %.091, 1
  %exitcond.not = icmp eq i32 %23, %0
  br i1 %exitcond.not, label %._crit_edge, label %.lr.ph

._crit_edge:                                      ; preds = %php_json_hex_to_int.exit, %2
  %.08.lcssa = phi i32 [ 0, %2 ], [ %22, %php_json_hex_to_int.exit ]
  ret i32 %.08.lcssa
}